target datalayout = "e-m:e-p270:32:32-p271:32:32-p272:64:64-i64:64-i128:128-f80:128-n8:16:32:64-S128"
target triple = "x86_64-pc-linux-gnu"

%struct.Vec_Int_t_ = type { i32, i32, ptr }
%struct.Gia_Man_t_ = type { ptr, ptr, i32, i32, i32, i32, ptr, ptr, i32, i32, i32, ptr, ptr, %struct.Vec_Int_t_, %struct.Vec_Int_t_, i32, i32, i32, %struct.Vec_Int_t_, ptr, ptr, ptr, i32, i32, i32, i32, ptr, ptr, ptr, ptr, ptr, i32, i32, ptr, i32, ptr, ptr, ptr, ptr, ptr, ptr, ptr, ptr, ptr, ptr, ptr, ptr, ptr, ptr, ptr, ptr, ptr, ptr, %struct.Vec_Int_t_, %struct.Vec_Int_t_, ptr, ptr, ptr, ptr, ptr, ptr, ptr, ptr, ptr, ptr, ptr, ptr, ptr, ptr, ptr, ptr, ptr, ptr, ptr, ptr, ptr, i32, float, float, ptr, ptr, i32, ptr, ptr, ptr, ptr, ptr, ptr, ptr, ptr, ptr, ptr, ptr, ptr, ptr, ptr, ptr, i64, i64, ptr, ptr, i32, i32, i32, i32, i32, i32, i32, i32, i32, i32, i32, i32, ptr, ptr, ptr, ptr, ptr, ptr, ptr, ptr, i32, i32, i32, ptr, i32, i32, ptr, ptr, ptr, ptr, ptr, ptr, i32, i32, ptr, %struct.Vec_Int_t_, %struct.Vec_Int_t_, %struct.Vec_Int_t_, ptr, ptr, ptr, i32, i32, i32, i32, ptr, ptr, ptr, ptr, ptr }

; Function Attrs: nounwind uwtable
define ptr @Abc_NtkRetimeWithClassesAig(ptr noundef %0, ptr noundef %1, ptr noundef %2, i32 noundef %3) #0 {
  %5 = alloca ptr, align 8
  %6 = alloca ptr, align 8
  %7 = alloca ptr, align 8
  %8 = alloca i32, align 4
  %9 = alloca ptr, align 8
  %10 = alloca ptr, align 8
  %11 = alloca ptr, align 8
  store ptr %0, ptr %5, align 8, !tbaa !85
  store ptr %1, ptr %6, align 8, !tbaa !48
  store ptr %2, ptr %7, align 8, !tbaa !87
  store i32 %3, ptr %8, align 4, !tbaa !31
  call void @llvm.lifetime.start.p0(i64 8, ptr %9) #7
  call void @llvm.lifetime.start.p0(i64 8, ptr %10) #7
  call void @llvm.lifetime.start.p0(i64 8, ptr %11) #7
  %12 = load ptr, ptr %5, align 8, !tbaa !85
  %13 = call ptr @Gia_ManFromAigSimple(ptr noundef %12)
  store ptr %13, ptr %10, align 8, !tbaa !89
  %14 = load ptr, ptr %6, align 8, !tbaa !48
  %15 = load ptr, ptr %10, align 8, !tbaa !89
  %16 = getelementptr inbounds nuw %struct.Gia_Man_t_, ptr %15, i32 0, i32 57
  store ptr %14, ptr %16, align 8, !tbaa !91
  %17 = load ptr, ptr %10, align 8, !tbaa !89
  %18 = load i32, ptr %8, align 4, !tbaa !31
  %19 = call ptr @Gia_ManRetimeForward(ptr noundef %17, i32 noundef 10, i32 noundef %18)
  store ptr %19, ptr %11, align 8, !tbaa !89
  %20 = load ptr, ptr %11, align 8, !tbaa !89
  %21 = getelementptr inbounds nuw %struct.Gia_Man_t_, ptr %20, i32 0, i32 57
  %22 = load ptr, ptr %21, align 8, !tbaa !91
  %23 = load ptr, ptr %7, align 8, !tbaa !87
  store ptr %22, ptr %23, align 8, !tbaa !48
  %24 = load ptr, ptr %11, align 8, !tbaa !89
  %25 = getelementptr inbounds nuw %struct.Gia_Man_t_, ptr %24, i32 0, i32 57
  store ptr null, ptr %25, align 8, !tbaa !91
  %26 = load ptr, ptr %11, align 8, !tbaa !89
  %27 = call ptr @Gia_ManToAig(ptr noundef %26, i32 noundef 0)
  store ptr %27, ptr %9, align 8, !tbaa !85
  %28 = load ptr, ptr %11, align 8, !tbaa !89
  call void @Gia_ManStop(ptr noundef %28)
  %29 = load ptr, ptr %10, align 8, !tbaa !89
  call void @Gia_ManStop(ptr noundef %29)
  %30 = load ptr, ptr %9, align 8, !tbaa !85
  call void @llvm.lifetime.end.p0(i64 8, ptr %11) #7
  call void @llvm.lifetime.end.p0(i64 8, ptr %10) #7
  call void @llvm.lifetime.end.p0(i64 8, ptr %9) #7
  ret ptr %30
}

; Function Attrs: nounwind uwtable
define ptr @Abc_NtkRetimeWithClassesNtk(ptr noundef %0, ptr noundef %1, ptr noundef %2, i32 noundef %3) #0 {
  %5 = alloca ptr, align 8
  %6 = alloca ptr, align 8
  %7 = alloca ptr, align 8
  %8 = alloca i32, align 4
  %9 = alloca ptr, align 8
  %10 = alloca ptr, align 8
  %11 = alloca ptr, align 8
  %12 = alloca ptr, align 8
  %13 = alloca ptr, align 8
  store ptr %0, ptr %5, align 8, !tbaa !33
  store ptr %1, ptr %6, align 8, !tbaa !48
  store ptr %2, ptr %7, align 8, !tbaa !87
  store i32 %3, ptr %8, align 4, !tbaa !31
  call void @llvm.lifetime.start.p0(i64 8, ptr %9) #7
  call void @llvm.lifetime.start.p0(i64 8, ptr %10) #7
  call void @llvm.lifetime.start.p0(i64 8, ptr %11) #7
  call void @llvm.lifetime.start.p0(i64 8, ptr %12) #7
  call void @llvm.lifetime.start.p0(i64 8, ptr %13) #7
  %14 = load ptr, ptr %5, align 8, !tbaa !33
  %15 = call ptr @Abc_NtkStrash(ptr noundef %14, i32 noundef 0, i32 noundef 1, i32 noundef 0)
  store ptr %15, ptr %9, align 8, !tbaa !33
  %16 = load ptr, ptr %9, align 8, !tbaa !33
  %17 = call ptr @Abc_NtkToDar(ptr noundef %16, i32 noundef 0, i32 noundef 1)
  store ptr %17, ptr %12, align 8, !tbaa !85
  %18 = load ptr, ptr %12, align 8, !tbaa !85
  %19 = load ptr, ptr %6, align 8, !tbaa !48
  %20 = load ptr, ptr %7, align 8, !tbaa !87
  %21 = load i32, ptr %8, align 4, !tbaa !31
  %22 = call ptr @Abc_NtkRetimeWithClassesAig(ptr noundef %18, ptr noundef %19, ptr noundef %20, i32 noundef %21)
  store ptr %22, ptr %13, align 8, !tbaa !85
  %23 = load ptr, ptr %9, align 8, !tbaa !33
  %24 = load ptr, ptr %13, align 8, !tbaa !85
  %25 = call ptr @Abc_NtkFromDarSeqSweep(ptr noundef %23, ptr noundef %24)
  store ptr %25, ptr %10, align 8, !tbaa !33
  %26 = load ptr, ptr %10, align 8, !tbaa !33
  %27 = call ptr @Abc_NtkToLogic(ptr noundef %26)
  store ptr %27, ptr %11, align 8, !tbaa !33
  %28 = load ptr, ptr %10, align 8, !tbaa !33
  call void @Abc_NtkDelete(ptr noundef %28)
  %29 = load ptr, ptr %9, align 8, !tbaa !33
  call void @Abc_NtkDelete(ptr noundef %29)
  %30 = load ptr, ptr %13, align 8, !tbaa !85
  call void @Aig_ManStop(ptr noundef %30)
  %31 = load ptr, ptr %12, align 8, !tbaa !85
  call void @Aig_ManStop(ptr noundef %31)
  %32 = load ptr, ptr %11, align 8, !tbaa !33
  call void @llvm.lifetime.end.p0(i64 8, ptr %13) #7
  call void @llvm.lifetime.end.p0(i64 8, ptr %12) #7
  call void @llvm.lifetime.end.p0(i64 8, ptr %11) #7
  call void @llvm.lifetime.end.p0(i64 8, ptr %10) #7
  call void @llvm.lifetime.end.p0(i64 8, ptr %9) #7
  ret ptr %32
}