; Function Attrs: nounwind uwtable
define ptr @Abc_NtkRetimeWithClassesNtk(ptr noundef %0, ptr noundef %1, ptr noundef writeonly captures(none) initializes((0, 8)) %2, i32 noundef %3) local_unnamed_addr #2 {
  %5 = tail call ptr @Abc_NtkStrash(ptr noundef %0, i32 noundef 0, i32 noundef 1, i32 noundef 0) #12
  %6 = tail call ptr @Abc_NtkToDar(ptr noundef %5, i32 noundef 0, i32 noundef 1) #12
  %7 = tail call ptr @Gia_ManFromAigSimple(ptr noundef %6) #12
  %8 = getelementptr inbounds nuw i8, ptr %7, i64 440
  store ptr %1, ptr %8, align 8, !tbaa !79
  %9 = tail call ptr @Gia_ManRetimeForward(ptr noundef %7, i32 noundef 10, i32 noundef %3) #12
  %10 = getelementptr inbounds nuw i8, ptr %9, i64 440
  %11 = load ptr, ptr %10, align 8, !tbaa !79
  store ptr %11, ptr %2, align 8, !tbaa !93
  store ptr null, ptr %10, align 8, !tbaa !79
  %12 = tail call ptr @Gia_ManToAig(ptr noundef %9, i32 noundef 0) #12
  tail call void @Gia_ManStop(ptr noundef %9) #12
  tail call void @Gia_ManStop(ptr noundef %7) #12
  %13 = tail call ptr @Abc_NtkFromDarSeqSweep(ptr noundef %5, ptr noundef %12) #12
  %14 = tail call ptr @Abc_NtkToLogic(ptr noundef %13) #12
  tail call void @Abc_NtkDelete(ptr noundef %13) #12
  tail call void @Abc_NtkDelete(ptr noundef %5) #12
  tail call void @Aig_ManStop(ptr noundef %12) #12
  tail call void @Aig_ManStop(ptr noundef %6) #12
  ret ptr %14
}